target datalayout = "e-m:e-p270:32:32-p271:32:32-p272:64:64-i64:64-i128:128-f80:128-n8:16:32:64-S128"
target triple = "x86_64-pc-linux-gnu"

%struct.Agdesc_s = type { i8, [3 x i8] }
%struct.Agiddisc_s = type { ptr, ptr, ptr, ptr, ptr, ptr }
%struct.Agdisc_s = type { ptr, ptr }
%struct.Agobj_s = type { %struct.Agtag_s, ptr }
%struct.Agtag_s = type { i32, i64 }
%struct.Agraph_s = type { %struct.Agobj_s, %struct.Agdesc_s, %struct.dtlink_s_, %struct.dtlink_s_, ptr, ptr, ptr, ptr, ptr, ptr, ptr, ptr, ptr }
%struct.dtlink_s_ = type { ptr, %union.anon }
%union.anon = type { ptr }
%struct.Agclos_s = type { %struct.Agdisc_s, %struct.Agdstate_s, ptr, [3 x i64], ptr, [3 x ptr], [3 x ptr] }
%struct.Agdstate_s = type { ptr }
%struct.Agcbstack_s = type { ptr, ptr, ptr }

; Function Attrs: nounwind uwtable
define i32 @agclose(ptr noundef %0) #0 {
  %2 = alloca i32, align 4
  %3 = alloca ptr, align 8
  %4 = alloca ptr, align 8
  %5 = alloca ptr, align 8
  %6 = alloca ptr, align 8
  %7 = alloca ptr, align 8
  %8 = alloca ptr, align 8
  %9 = alloca i32, align 4
  %10 = alloca ptr, align 8
  store ptr %0, ptr %3, align 8, !tbaa !12
  call void @llvm.lifetime.start.p0(i64 8, ptr %4) #9
  call void @llvm.lifetime.start.p0(i64 8, ptr %5) #9
  call void @llvm.lifetime.start.p0(i64 8, ptr %6) #9
  call void @llvm.lifetime.start.p0(i64 8, ptr %7) #9
  call void @llvm.lifetime.start.p0(i64 8, ptr %8) #9
  %11 = load ptr, ptr %3, align 8, !tbaa !12
  %12 = call ptr @agparent(ptr noundef %11)
  store ptr %12, ptr %6, align 8, !tbaa !12
  %13 = load ptr, ptr %3, align 8, !tbaa !12
  %14 = call ptr @agfstsubg(ptr noundef %13)
  store ptr %14, ptr %4, align 8, !tbaa !12
  br label %15

15:                                               ; preds = %23, %1
  %16 = load ptr, ptr %4, align 8, !tbaa !12
  %17 = icmp ne ptr %16, null
  br i1 %17, label %18, label %25

18:                                               ; preds = %15
  %19 = load ptr, ptr %4, align 8, !tbaa !12
  %20 = call ptr @agnxtsubg(ptr noundef %19)
  store ptr %20, ptr %5, align 8, !tbaa !12
  %21 = load ptr, ptr %4, align 8, !tbaa !12
  %22 = call i32 @agclose(ptr noundef %21)
  br label %23

23:                                               ; preds = %18
  %24 = load ptr, ptr %5, align 8, !tbaa !12
  store ptr %24, ptr %4, align 8, !tbaa !12
  br label %15, !llvm.loop !58

25:                                               ; preds = %15
  %26 = load ptr, ptr %3, align 8, !tbaa !12
  %27 = call ptr @agfstnode(ptr noundef %26)
  store ptr %27, ptr %7, align 8, !tbaa !60
  br label %28

28:                                               ; preds = %38, %25
  %29 = load ptr, ptr %7, align 8, !tbaa !60
  %30 = icmp ne ptr %29, null
  br i1 %30, label %31, label %40

31:                                               ; preds = %28
  %32 = load ptr, ptr %3, align 8, !tbaa !12
  %33 = load ptr, ptr %7, align 8, !tbaa !60
  %34 = call ptr @agnxtnode(ptr noundef %32, ptr noundef %33)
  store ptr %34, ptr %8, align 8, !tbaa !60
  %35 = load ptr, ptr %3, align 8, !tbaa !12
  %36 = load ptr, ptr %7, align 8, !tbaa !60
  %37 = call i32 @agdelnode(ptr noundef %35, ptr noundef %36)
  br label %38

38:                                               ; preds = %31
  %39 = load ptr, ptr %8, align 8, !tbaa !60
  store ptr %39, ptr %7, align 8, !tbaa !60
  br label %28, !llvm.loop !62

40:                                               ; preds = %28
  %41 = load ptr, ptr %3, align 8, !tbaa !12
  call void @aginternalmapclose(ptr noundef %41)
  %42 = load ptr, ptr %3, align 8, !tbaa !12
  %43 = load ptr, ptr %3, align 8, !tbaa !12
  call void @agmethod_delete(ptr noundef %42, ptr noundef %43)
  %44 = load ptr, ptr %3, align 8, !tbaa !12
  %45 = getelementptr inbounds nuw %struct.Agraph_s, ptr %44, i32 0, i32 5
  call void @node_set_free(ptr noundef %45)
  %46 = load ptr, ptr %3, align 8, !tbaa !12
  %47 = load ptr, ptr %3, align 8, !tbaa !12
  %48 = getelementptr inbounds nuw %struct.Agraph_s, ptr %47, i32 0, i32 4
  %49 = load ptr, ptr %48, align 8, !tbaa !47
  %50 = call i32 @agdtclose(ptr noundef %46, ptr noundef %49)
  %51 = icmp ne i32 %50, 0
  br i1 %51, label %52, label %53

52:                                               ; preds = %40
  store i32 -1, ptr %2, align 4
  store i32 1, ptr %9, align 4
  br label %160

53:                                               ; preds = %40
  %54 = load ptr, ptr %3, align 8, !tbaa !12
  %55 = load ptr, ptr %3, align 8, !tbaa !12
  %56 = getelementptr inbounds nuw %struct.Agraph_s, ptr %55, i32 0, i32 7
  %57 = load ptr, ptr %56, align 8, !tbaa !50
  %58 = call i32 @agdtclose(ptr noundef %54, ptr noundef %57)
  %59 = icmp ne i32 %58, 0
  br i1 %59, label %60, label %61

60:                                               ; preds = %53
  store i32 -1, ptr %2, align 4
  store i32 1, ptr %9, align 4
  br label %160

61:                                               ; preds = %53
  %62 = load ptr, ptr %3, align 8, !tbaa !12
  %63 = load ptr, ptr %3, align 8, !tbaa !12
  %64 = getelementptr inbounds nuw %struct.Agraph_s, ptr %63, i32 0, i32 6
  %65 = load ptr, ptr %64, align 8, !tbaa !49
  %66 = call i32 @agdtclose(ptr noundef %62, ptr noundef %65)
  %67 = icmp ne i32 %66, 0
  br i1 %67, label %68, label %69

68:                                               ; preds = %61
  store i32 -1, ptr %2, align 4
  store i32 1, ptr %9, align 4
  br label %160

69:                                               ; preds = %61
  %70 = load ptr, ptr %3, align 8, !tbaa !12
  %71 = load ptr, ptr %3, align 8, !tbaa !12
  %72 = getelementptr inbounds nuw %struct.Agraph_s, ptr %71, i32 0, i32 8
  %73 = load ptr, ptr %72, align 8, !tbaa !51
  %74 = call i32 @agdtclose(ptr noundef %70, ptr noundef %73)
  %75 = icmp ne i32 %74, 0
  br i1 %75, label %76, label %77

76:                                               ; preds = %69
  store i32 -1, ptr %2, align 4
  store i32 1, ptr %9, align 4
  br label %160

77:                                               ; preds = %69
  %78 = load ptr, ptr %3, align 8, !tbaa !12
  %79 = load ptr, ptr %3, align 8, !tbaa !12
  %80 = getelementptr inbounds nuw %struct.Agraph_s, ptr %79, i32 0, i32 9
  %81 = load ptr, ptr %80, align 8, !tbaa !52
  %82 = call i32 @agdtclose(ptr noundef %78, ptr noundef %81)
  %83 = icmp ne i32 %82, 0
  br i1 %83, label %84, label %85

84:                                               ; preds = %77
  store i32 -1, ptr %2, align 4
  store i32 1, ptr %9, align 4
  br label %160

85:                                               ; preds = %77
  %86 = load ptr, ptr %3, align 8, !tbaa !12
  %87 = getelementptr inbounds nuw %struct.Agraph_s, ptr %86, i32 0, i32 1
  %88 = load i8, ptr %87, align 8
  %89 = lshr i8 %88, 5
  %90 = and i8 %89, 1
  %91 = zext i8 %90 to i32
  %92 = icmp ne i32 %91, 0
  br i1 %92, label %93, label %99

93:                                               ; preds = %85
  %94 = load ptr, ptr %3, align 8, !tbaa !12
  %95 = call i32 @agraphattr_delete(ptr noundef %94)
  %96 = icmp ne i32 %95, 0
  br i1 %96, label %97, label %98

97:                                               ; preds = %93
  store i32 -1, ptr %2, align 4
  store i32 1, ptr %9, align 4
  br label %160

98:                                               ; preds = %93
  br label %99

99:                                               ; preds = %98, %85
  %100 = load ptr, ptr %3, align 8, !tbaa !12
  call void @agrecclose(ptr noundef %100)
  %101 = load ptr, ptr %3, align 8, !tbaa !12
  %102 = load ptr, ptr %3, align 8, !tbaa !12
  %103 = getelementptr inbounds nuw %struct.Agobj_s, ptr %102, i32 0, i32 0
  %104 = getelementptr inbounds nuw %struct.Agtag_s, ptr %103, i32 0, i32 1
  %105 = load i64, ptr %104, align 8, !tbaa !40
  call void @agfreeid(ptr noundef %101, i32 noundef 0, i64 noundef %105)
  %106 = load ptr, ptr %6, align 8, !tbaa !12
  %107 = icmp ne ptr %106, null
  br i1 %107, label %108, label %113

108:                                              ; preds = %99
  %109 = load ptr, ptr %6, align 8, !tbaa !12
  %110 = load ptr, ptr %3, align 8, !tbaa !12
  %111 = call i32 @agdelsubg(ptr noundef %109, ptr noundef %110)
  %112 = load ptr, ptr %3, align 8, !tbaa !12
  call void @free(ptr noundef %112) #9
  br label %159

113:                                              ; preds = %99
  call void @llvm.lifetime.start.p0(i64 8, ptr %10) #9
  br label %114

114:                                              ; preds = %121, %113
  %115 = load ptr, ptr %3, align 8, !tbaa !12
  %116 = getelementptr inbounds nuw %struct.Agraph_s, ptr %115, i32 0, i32 12
  %117 = load ptr, ptr %116, align 8, !tbaa !14
  %118 = getelementptr inbounds nuw %struct.Agclos_s, ptr %117, i32 0, i32 4
  %119 = load ptr, ptr %118, align 8, !tbaa !63
  %120 = icmp ne ptr %119, null
  br i1 %120, label %121, label %131

121:                                              ; preds = %114
  %122 = load ptr, ptr %3, align 8, !tbaa !12
  %123 = load ptr, ptr %3, align 8, !tbaa !12
  %124 = getelementptr inbounds nuw %struct.Agraph_s, ptr %123, i32 0, i32 12
  %125 = load ptr, ptr %124, align 8, !tbaa !14
  %126 = getelementptr inbounds nuw %struct.Agclos_s, ptr %125, i32 0, i32 4
  %127 = load ptr, ptr %126, align 8, !tbaa !63
  %128 = getelementptr inbounds nuw %struct.Agcbstack_s, ptr %127, i32 0, i32 0
  %129 = load ptr, ptr %128, align 8, !tbaa !64
  %130 = call i32 @agpopdisc(ptr noundef %122, ptr noundef %129)
  br label %114, !llvm.loop !67

131:                                              ; preds = %114
  %132 = load ptr, ptr %3, align 8, !tbaa !12
  %133 = getelementptr inbounds nuw %struct.Agraph_s, ptr %132, i32 0, i32 12
  %134 = load ptr, ptr %133, align 8, !tbaa !14
  %135 = getelementptr inbounds nuw %struct.Agclos_s, ptr %134, i32 0, i32 0
  %136 = getelementptr inbounds nuw %struct.Agdisc_s, ptr %135, i32 0, i32 0
  %137 = load ptr, ptr %136, align 8, !tbaa !29
  %138 = getelementptr inbounds nuw %struct.Agiddisc_s, ptr %137, i32 0, i32 4
  %139 = load ptr, ptr %138, align 8, !tbaa !68
  %140 = load ptr, ptr %3, align 8, !tbaa !12
  %141 = getelementptr inbounds nuw %struct.Agraph_s, ptr %140, i32 0, i32 12
  %142 = load ptr, ptr %141, align 8, !tbaa !14
  %143 = getelementptr inbounds nuw %struct.Agclos_s, ptr %142, i32 0, i32 1
  %144 = getelementptr inbounds nuw %struct.Agdstate_s, ptr %143, i32 0, i32 0
  %145 = load ptr, ptr %144, align 8, !tbaa !38
  call void %139(ptr noundef %145)
  %146 = load ptr, ptr %3, align 8, !tbaa !12
  %147 = call i32 @agstrclose(ptr noundef %146)
  %148 = icmp ne i32 %147, 0
  br i1 %148, label %149, label %150

149:                                              ; preds = %131
  store i32 -1, ptr %2, align 4
  store i32 1, ptr %9, align 4
  br label %156

150:                                              ; preds = %131
  %151 = load ptr, ptr %3, align 8, !tbaa !12
  %152 = getelementptr inbounds nuw %struct.Agraph_s, ptr %151, i32 0, i32 12
  %153 = load ptr, ptr %152, align 8, !tbaa !14
  store ptr %153, ptr %10, align 8, !tbaa !46
  %154 = load ptr, ptr %3, align 8, !tbaa !12
  call void @free(ptr noundef %154) #9
  %155 = load ptr, ptr %10, align 8, !tbaa !46
  call void @free(ptr noundef %155) #9
  store i32 0, ptr %9, align 4
  br label %156

156:                                              ; preds = %150, %149
  call void @llvm.lifetime.end.p0(i64 8, ptr %10) #9
  %157 = load i32, ptr %9, align 4
  switch i32 %157, label %160 [
    i32 0, label %158
  ]

158:                                              ; preds = %156
  br label %159

159:                                              ; preds = %158, %108
  store i32 0, ptr %2, align 4
  store i32 1, ptr %9, align 4
  br label %160

160:                                              ; preds = %159, %156, %97, %84, %76, %68, %60, %52
  call void @llvm.lifetime.end.p0(i64 8, ptr %8) #9
  call void @llvm.lifetime.end.p0(i64 8, ptr %7) #9
  call void @llvm.lifetime.end.p0(i64 8, ptr %6) #9
  call void @llvm.lifetime.end.p0(i64 8, ptr %5) #9
  call void @llvm.lifetime.end.p0(i64 8, ptr %4) #9
  %161 = load i32, ptr %2, align 4
  ret i32 %161
}