; Function Attrs: nounwind uwtable
define range(i32 -1, 1) i32 @agclose(ptr noundef %0) local_unnamed_addr #0 {
  %2 = tail call ptr @agparent(ptr noundef %0) #11
  %3 = tail call ptr @agfstsubg(ptr noundef %0) #11
  %.not63 = icmp eq ptr %3, null
  br i1 %.not63, label %._crit_edge, label %.lr.ph

.lr.ph:                                           ; preds = %1, %.lr.ph
  %.04764 = phi ptr [ %4, %.lr.ph ], [ %3, %1 ]
  %4 = tail call ptr @agnxtsubg(ptr noundef nonnull %.04764) #11
  %5 = tail call i32 @agclose(ptr noundef nonnull %.04764)
  %.not = icmp eq ptr %4, null
  br i1 %.not, label %._crit_edge, label %.lr.ph, !llvm.loop !49

._crit_edge:                                      ; preds = %.lr.ph, %1
  %6 = tail call ptr @agfstnode(ptr noundef %0) #11
  %.not5165 = icmp eq ptr %6, null
  br i1 %.not5165, label %._crit_edge69, label %.lr.ph68

.lr.ph68:                                         ; preds = %._crit_edge, %.lr.ph68
  %.04866 = phi ptr [ %7, %.lr.ph68 ], [ %6, %._crit_edge ]
  %7 = tail call ptr @agnxtnode(ptr noundef %0, ptr noundef nonnull %.04866) #11
  %8 = tail call i32 @agdelnode(ptr noundef %0, ptr noundef nonnull %.04866) #11
  %.not51 = icmp eq ptr %7, null
  br i1 %.not51, label %._crit_edge69, label %.lr.ph68, !llvm.loop !51

._crit_edge69:                                    ; preds = %.lr.ph68, %._crit_edge
  tail call void @aginternalmapclose(ptr noundef %0) #11
  tail call void @agmethod_delete(ptr noundef %0, ptr noundef %0) #11
  %9 = getelementptr inbounds nuw i8, ptr %0, i64 72
  tail call void @node_set_free(ptr noundef nonnull %9) #11
  %10 = getelementptr inbounds nuw i8, ptr %0, i64 64
  %11 = load ptr, ptr %10, align 8, !tbaa !39
  %12 = tail call i32 @agdtclose(ptr noundef %0, ptr noundef %11) #11
  %.not52 = icmp eq i32 %12, 0
  br i1 %.not52, label %13, label %.critedge

13:                                               ; preds = %._crit_edge69
  %14 = getelementptr inbounds nuw i8, ptr %0, i64 88
  %15 = load ptr, ptr %14, align 8, !tbaa !42
  %16 = tail call i32 @agdtclose(ptr noundef nonnull %0, ptr noundef %15) #11
  %.not53 = icmp eq i32 %16, 0
  br i1 %.not53, label %17, label %.critedge

17:                                               ; preds = %13
  %18 = getelementptr inbounds nuw i8, ptr %0, i64 80
  %19 = load ptr, ptr %18, align 8, !tbaa !41
  %20 = tail call i32 @agdtclose(ptr noundef nonnull %0, ptr noundef %19) #11
  %.not54 = icmp eq i32 %20, 0
  br i1 %.not54, label %21, label %.critedge

21:                                               ; preds = %17
  %22 = getelementptr inbounds nuw i8, ptr %0, i64 96
  %23 = load ptr, ptr %22, align 8, !tbaa !43
  %24 = tail call i32 @agdtclose(ptr noundef nonnull %0, ptr noundef %23) #11
  %.not55 = icmp eq i32 %24, 0
  br i1 %.not55, label %25, label %.critedge

25:                                               ; preds = %21
  %26 = getelementptr inbounds nuw i8, ptr %0, i64 104
  %27 = load ptr, ptr %26, align 8, !tbaa !44
  %28 = tail call i32 @agdtclose(ptr noundef nonnull %0, ptr noundef %27) #11
  %.not56 = icmp eq i32 %28, 0
  br i1 %.not56, label %29, label %.critedge

29:                                               ; preds = %25
  %30 = getelementptr inbounds nuw i8, ptr %0, i64 24
  %31 = load i8, ptr %30, align 8
  %32 = and i8 %31, 32
  %.not57 = icmp eq i8 %32, 0
  br i1 %.not57, label %35, label %33

33:                                               ; preds = %29
  %34 = tail call i32 @agraphattr_delete(ptr noundef nonnull %0) #11
  %.not58 = icmp eq i32 %34, 0
  br i1 %.not58, label %35, label %.critedge

35:                                               ; preds = %33, %29
  tail call void @agrecclose(ptr noundef nonnull %0) #11
  %36 = getelementptr inbounds nuw i8, ptr %0, i64 8
  %37 = load i64, ptr %36, align 8, !tbaa !37
  tail call void @agfreeid(ptr noundef nonnull %0, i32 noundef 0, i64 noundef %37) #11
  %.not59 = icmp eq ptr %2, null
  br i1 %.not59, label %.preheader, label %42

.preheader:                                       ; preds = %35
  %38 = getelementptr inbounds nuw i8, ptr %0, i64 128
  %39 = load ptr, ptr %38, align 8, !tbaa !18
  %40 = getelementptr inbounds nuw i8, ptr %39, i64 56
  %41 = load ptr, ptr %40, align 8, !tbaa !52
  %.not6070 = icmp eq ptr %41, null
  br i1 %.not6070, label %._crit_edge72, label %.lr.ph71

42:                                               ; preds = %35
  %43 = tail call i32 @agdelsubg(ptr noundef nonnull %2, ptr noundef nonnull %0) #11
  br label %.critedge.sink.split

.lr.ph71:                                         ; preds = %.preheader, %.lr.ph71
  %44 = phi ptr [ %49, %.lr.ph71 ], [ %41, %.preheader ]
  %45 = load ptr, ptr %44, align 8, !tbaa !53
  %46 = tail call i32 @agpopdisc(ptr noundef nonnull %0, ptr noundef %45) #11
  %47 = load ptr, ptr %38, align 8, !tbaa !18
  %48 = getelementptr inbounds nuw i8, ptr %47, i64 56
  %49 = load ptr, ptr %48, align 8, !tbaa !52
  %.not60 = icmp eq ptr %49, null
  br i1 %.not60, label %._crit_edge72, label %.lr.ph71, !llvm.loop !56

._crit_edge72:                                    ; preds = %.lr.ph71, %.preheader
  %.lcssa = phi ptr [ %39, %.preheader ], [ %47, %.lr.ph71 ]
  %50 = load ptr, ptr %.lcssa, align 8, !tbaa !13
  %51 = getelementptr inbounds nuw i8, ptr %50, i64 32
  %52 = load ptr, ptr %51, align 8, !tbaa !57
  %53 = getelementptr inbounds nuw i8, ptr %.lcssa, i64 16
  %54 = load ptr, ptr %53, align 8, !tbaa !35
  tail call void %52(ptr noundef %54) #11
  %55 = tail call i32 @agstrclose(ptr noundef nonnull %0) #11
  %.not61 = icmp eq i32 %55, 0
  br i1 %.not61, label %56, label %.critedge

56:                                               ; preds = %._crit_edge72
  %57 = load ptr, ptr %38, align 8, !tbaa !18
  tail call void @free(ptr noundef nonnull %0) #11
  br label %.critedge.sink.split

.critedge.sink.split:                             ; preds = %56, %42
  %.sink = phi ptr [ %0, %42 ], [ %57, %56 ]
  tail call void @free(ptr noundef %.sink) #11
  br label %.critedge

.critedge:                                        ; preds = %.critedge.sink.split, %._crit_edge72, %33, %25, %21, %17, %13, %._crit_edge69
  %.0 = phi i32 [ -1, %._crit_edge69 ], [ -1, %13 ], [ -1, %17 ], [ -1, %21 ], [ -1, %25 ], [ -1, %33 ], [ -1, %._crit_edge72 ], [ 0, %.critedge.sink.split ]
  ret i32 %.0
}